target datalayout = "e-m:e-p270:32:32-p271:32:32-p272:64:64-i64:64-i128:128-f80:128-n8:16:32:64-S128"
target triple = "x86_64-pc-linux-gnu"

%"class.cv::utils::trace::details::Region" = type <{ ptr, i32, [4 x i8] }>
%"class.cv::BaseRowFilter" = type { ptr, i32, i32 }

; Function Attrs: inlinehint mustprogress nounwind uwtable
define linkonce_odr hidden void @_ZN2cv5utils5trace7details6RegionD2Ev(ptr noundef nonnull align 8 dereferenceable(12) %0) unnamed_addr #6 comdat align 2 personality ptr @__gxx_personality_v0 {
  %2 = alloca ptr, align 8
  store ptr %0, ptr %2, align 8, !tbaa !38
  %3 = load ptr, ptr %2, align 8
  %4 = getelementptr inbounds nuw %"class.cv::utils::trace::details::Region", ptr %3, i32 0, i32 1
  %5 = load i32, ptr %4, align 8, !tbaa !40
  %6 = icmp ne i32 %5, 0
  br i1 %6, label %7, label %9

7:                                                ; preds = %1
  invoke void @_ZN2cv5utils5trace7details6Region7destroyEv(ptr noundef nonnull align 8 dereferenceable(12) %3)
          to label %8 unwind label %10

8:                                                ; preds = %7
  br label %9

9:                                                ; preds = %8, %1
  ret void

10:                                               ; preds = %7
  %11 = landingpad { ptr, i32 }
          catch ptr null
  %12 = extractvalue { ptr, i32 } %11, 0
  call void @__clang_call_terminate(ptr %12) #23
  unreachable
}

; Function Attrs: mustprogress uwtable
define internal void @_ZN2cv12cpu_baseline12_GLOBAL__N_19SqrRowSumItdEclEPKhPhii(ptr noundef nonnull align 8 dereferenceable(16) %0, ptr noundef %1, ptr noundef %2, i32 noundef %3, i32 noundef %4) unnamed_addr #0 align 2 {
  %6 = alloca ptr, align 8
  %7 = alloca ptr, align 8
  %8 = alloca ptr, align 8
  %9 = alloca i32, align 4
  %10 = alloca i32, align 4
  %11 = alloca %"class.cv::utils::trace::details::Region", align 8
  %12 = alloca ptr, align 8
  %13 = alloca ptr, align 8
  %14 = alloca i32, align 4
  %15 = alloca i32, align 4
  %16 = alloca i32, align 4
  %17 = alloca double, align 8
  %18 = alloca double, align 8
  %19 = alloca double, align 8
  %20 = alloca double, align 8
  store ptr %0, ptr %6, align 8, !tbaa !1148
  store ptr %1, ptr %7, align 8, !tbaa !12
  store ptr %2, ptr %8, align 8, !tbaa !12
  store i32 %3, ptr %9, align 4, !tbaa !3
  store i32 %4, ptr %10, align 4, !tbaa !3
  %21 = load ptr, ptr %6, align 8
  call void @llvm.lifetime.start.p0(i64 16, ptr %11) #21
  call void @_ZN2cv5utils5trace7details6RegionC1ERKNS3_21LocationStaticStorageE(ptr noundef nonnull align 8 dereferenceable(12) %11, ptr noundef nonnull align 8 dereferenceable(32) @_ZZN2cv12cpu_baseline12_GLOBAL__N_19SqrRowSumItdEclEPKhPhiiE26__cv_trace_location_fn1293)
  call void @llvm.lifetime.start.p0(i64 8, ptr %12) #21
  %22 = load ptr, ptr %7, align 8, !tbaa !12
  store ptr %22, ptr %12, align 8, !tbaa !250
  call void @llvm.lifetime.start.p0(i64 8, ptr %13) #21
  %23 = load ptr, ptr %8, align 8, !tbaa !12
  store ptr %23, ptr %13, align 8, !tbaa !45
  call void @llvm.lifetime.start.p0(i64 4, ptr %14) #21
  store i32 0, ptr %14, align 4, !tbaa !3
  call void @llvm.lifetime.start.p0(i64 4, ptr %15) #21
  call void @llvm.lifetime.start.p0(i64 4, ptr %16) #21
  %24 = getelementptr inbounds nuw %"class.cv::BaseRowFilter", ptr %21, i32 0, i32 1
  %25 = load i32, ptr %24, align 8, !tbaa !203
  %26 = load i32, ptr %10, align 4, !tbaa !3
  %27 = mul nsw i32 %25, %26
  store i32 %27, ptr %16, align 4, !tbaa !3
  %28 = load i32, ptr %9, align 4, !tbaa !3
  %29 = sub nsw i32 %28, 1
  %30 = load i32, ptr %10, align 4, !tbaa !3
  %31 = mul nsw i32 %29, %30
  store i32 %31, ptr %9, align 4, !tbaa !3
  store i32 0, ptr %15, align 4, !tbaa !3
  br label %32

32:                                               ; preds = %100, %5
  %33 = load i32, ptr %15, align 4, !tbaa !3
  %34 = load i32, ptr %10, align 4, !tbaa !3
  %35 = icmp slt i32 %33, %34
  br i1 %35, label %36, label %107

36:                                               ; preds = %32
  call void @llvm.lifetime.start.p0(i64 8, ptr %17) #21
  store double 0.000000e+00, ptr %17, align 8, !tbaa !43
  store i32 0, ptr %14, align 4, !tbaa !3
  br label %37

37:                                               ; preds = %52, %36
  %38 = load i32, ptr %14, align 4, !tbaa !3
  %39 = load i32, ptr %16, align 4, !tbaa !3
  %40 = icmp slt i32 %38, %39
  br i1 %40, label %41, label %56

41:                                               ; preds = %37
  call void @llvm.lifetime.start.p0(i64 8, ptr %18) #21
  %42 = load ptr, ptr %12, align 8, !tbaa !250
  %43 = load i32, ptr %14, align 4, !tbaa !3
  %44 = sext i32 %43 to i64
  %45 = getelementptr inbounds i16, ptr %42, i64 %44
  %46 = load i16, ptr %45, align 2, !tbaa !252
  %47 = uitofp i16 %46 to double
  store double %47, ptr %18, align 8, !tbaa !43
  %48 = load double, ptr %18, align 8, !tbaa !43
  %49 = load double, ptr %18, align 8, !tbaa !43
  %50 = load double, ptr %17, align 8, !tbaa !43
  %51 = call double @llvm.fmuladd.f64(double %48, double %49, double %50)
  store double %51, ptr %17, align 8, !tbaa !43
  call void @llvm.lifetime.end.p0(i64 8, ptr %18) #21
  br label %52

52:                                               ; preds = %41
  %53 = load i32, ptr %10, align 4, !tbaa !3
  %54 = load i32, ptr %14, align 4, !tbaa !3
  %55 = add nsw i32 %54, %53
  store i32 %55, ptr %14, align 4, !tbaa !3
  br label %37, !llvm.loop !1160

56:                                               ; preds = %37
  %57 = load double, ptr %17, align 8, !tbaa !43
  %58 = load ptr, ptr %13, align 8, !tbaa !45
  %59 = getelementptr inbounds double, ptr %58, i64 0
  store double %57, ptr %59, align 8, !tbaa !43
  store i32 0, ptr %14, align 4, !tbaa !3
  br label %60

60:                                               ; preds = %95, %56
  %61 = load i32, ptr %14, align 4, !tbaa !3
  %62 = load i32, ptr %9, align 4, !tbaa !3
  %63 = icmp slt i32 %61, %62
  br i1 %63, label %64, label %99

64:                                               ; preds = %60
  call void @llvm.lifetime.start.p0(i64 8, ptr %19) #21
  %65 = load ptr, ptr %12, align 8, !tbaa !250
  %66 = load i32, ptr %14, align 4, !tbaa !3
  %67 = sext i32 %66 to i64
  %68 = getelementptr inbounds i16, ptr %65, i64 %67
  %69 = load i16, ptr %68, align 2, !tbaa !252
  %70 = uitofp i16 %69 to double
  store double %70, ptr %19, align 8, !tbaa !43
  call void @llvm.lifetime.start.p0(i64 8, ptr %20) #21
  %71 = load ptr, ptr %12, align 8, !tbaa !250
  %72 = load i32, ptr %14, align 4, !tbaa !3
  %73 = load i32, ptr %16, align 4, !tbaa !3
  %74 = add nsw i32 %72, %73
  %75 = sext i32 %74 to i64
  %76 = getelementptr inbounds i16, ptr %71, i64 %75
  %77 = load i16, ptr %76, align 2, !tbaa !252
  %78 = uitofp i16 %77 to double
  store double %78, ptr %20, align 8, !tbaa !43
  %79 = load double, ptr %20, align 8, !tbaa !43
  %80 = load double, ptr %20, align 8, !tbaa !43
  %81 = load double, ptr %19, align 8, !tbaa !43
  %82 = load double, ptr %19, align 8, !tbaa !43
  %83 = fmul double %81, %82
  %84 = fneg double %83
  %85 = call double @llvm.fmuladd.f64(double %79, double %80, double %84)
  %86 = load double, ptr %17, align 8, !tbaa !43
  %87 = fadd double %86, %85
  store double %87, ptr %17, align 8, !tbaa !43
  %88 = load double, ptr %17, align 8, !tbaa !43
  %89 = load ptr, ptr %13, align 8, !tbaa !45
  %90 = load i32, ptr %14, align 4, !tbaa !3
  %91 = load i32, ptr %10, align 4, !tbaa !3
  %92 = add nsw i32 %90, %91
  %93 = sext i32 %92 to i64
  %94 = getelementptr inbounds double, ptr %89, i64 %93
  store double %88, ptr %94, align 8, !tbaa !43
  call void @llvm.lifetime.end.p0(i64 8, ptr %20) #21
  call void @llvm.lifetime.end.p0(i64 8, ptr %19) #21
  br label %95

95:                                               ; preds = %64
  %96 = load i32, ptr %10, align 4, !tbaa !3
  %97 = load i32, ptr %14, align 4, !tbaa !3
  %98 = add nsw i32 %97, %96
  store i32 %98, ptr %14, align 4, !tbaa !3
  br label %60, !llvm.loop !1161

99:                                               ; preds = %60
  call void @llvm.lifetime.end.p0(i64 8, ptr %17) #21
  br label %100

100:                                              ; preds = %99
  %101 = load i32, ptr %15, align 4, !tbaa !3
  %102 = add nsw i32 %101, 1
  store i32 %102, ptr %15, align 4, !tbaa !3
  %103 = load ptr, ptr %12, align 8, !tbaa !250
  %104 = getelementptr inbounds nuw i16, ptr %103, i32 1
  store ptr %104, ptr %12, align 8, !tbaa !250
  %105 = load ptr, ptr %13, align 8, !tbaa !45
  %106 = getelementptr inbounds nuw double, ptr %105, i32 1
  store ptr %106, ptr %13, align 8, !tbaa !45
  br label %32, !llvm.loop !1162

107:                                              ; preds = %32
  call void @llvm.lifetime.end.p0(i64 4, ptr %16) #21
  call void @llvm.lifetime.end.p0(i64 4, ptr %15) #21
  call void @llvm.lifetime.end.p0(i64 4, ptr %14) #21
  call void @llvm.lifetime.end.p0(i64 8, ptr %13) #21
  call void @llvm.lifetime.end.p0(i64 8, ptr %12) #21
  call void @_ZN2cv5utils5trace7details6RegionD2Ev(ptr noundef nonnull align 8 dereferenceable(12) %11) #21
  call void @llvm.lifetime.end.p0(i64 16, ptr %11) #21
  ret void
}